target datalayout = "e-m:e-p270:32:32-p271:32:32-p272:64:64-i64:64-i128:128-f80:128-n8:16:32:64-S128"
target triple = "x86_64-pc-linux-gnu"

%struct.ExtraMetaList = type { ptr, ptr }
%struct.ID3v2ExtraMeta = type { ptr, ptr, %union.anon }
%union.anon = type { %struct.ID3v2ExtraMetaGEOB }
%struct.ID3v2ExtraMetaGEOB = type { i32, ptr, ptr, ptr, ptr }
%struct.ID3v2ExtraMetaCHAP = type { ptr, i32, i32, ptr }

@.str.68 = private unnamed_addr constant [5 x i8] c"CHAP\00", align 1

; Function Attrs: nounwind uwtable
define internal void @free_chapter(ptr noundef %0) #0 {
  %2 = alloca ptr, align 8
  %3 = alloca ptr, align 8
  store ptr %0, ptr %2, align 8, !tbaa !108
  call void @llvm.lifetime.start.p0(i64 8, ptr %3) #10
  %4 = load ptr, ptr %2, align 8, !tbaa !108
  store ptr %4, ptr %3, align 8, !tbaa !74
  %5 = load ptr, ptr %3, align 8, !tbaa !74
  %6 = getelementptr inbounds nuw %struct.ID3v2ExtraMetaCHAP, ptr %5, i32 0, i32 0
  call void @av_freep(ptr noundef %6)
  %7 = load ptr, ptr %3, align 8, !tbaa !74
  %8 = getelementptr inbounds nuw %struct.ID3v2ExtraMetaCHAP, ptr %7, i32 0, i32 3
  call void @av_dict_free(ptr noundef %8)
  call void @llvm.lifetime.end.p0(i64 8, ptr %3) #10
  ret void
}

; Function Attrs: nounwind uwtable
define internal void @list_append(ptr noundef %0, ptr noundef %1) #0 {
  %3 = alloca ptr, align 8
  %4 = alloca ptr, align 8
  store ptr %0, ptr %3, align 8, !tbaa !23
  store ptr %1, ptr %4, align 8, !tbaa !92
  %5 = load ptr, ptr %4, align 8, !tbaa !92
  %6 = getelementptr inbounds nuw %struct.ExtraMetaList, ptr %5, i32 0, i32 1
  %7 = load ptr, ptr %6, align 8, !tbaa !130
  %8 = icmp ne ptr %7, null
  br i1 %8, label %9, label %15

9:                                                ; preds = %2
  %10 = load ptr, ptr %3, align 8, !tbaa !23
  %11 = load ptr, ptr %4, align 8, !tbaa !92
  %12 = getelementptr inbounds nuw %struct.ExtraMetaList, ptr %11, i32 0, i32 1
  %13 = load ptr, ptr %12, align 8, !tbaa !130
  %14 = getelementptr inbounds nuw %struct.ID3v2ExtraMeta, ptr %13, i32 0, i32 1
  store ptr %10, ptr %14, align 8, !tbaa !47
  br label %19

15:                                               ; preds = %2
  %16 = load ptr, ptr %3, align 8, !tbaa !23
  %17 = load ptr, ptr %4, align 8, !tbaa !92
  %18 = getelementptr inbounds nuw %struct.ExtraMetaList, ptr %17, i32 0, i32 0
  store ptr %16, ptr %18, align 8, !tbaa !27
  br label %19

19:                                               ; preds = %15, %9
  %20 = load ptr, ptr %3, align 8, !tbaa !23
  %21 = load ptr, ptr %4, align 8, !tbaa !92
  %22 = getelementptr inbounds nuw %struct.ExtraMetaList, ptr %21, i32 0, i32 1
  store ptr %20, ptr %22, align 8, !tbaa !130
  ret void
}

; Function Attrs: nounwind uwtable
define internal void @read_chapter(ptr noundef %0, ptr noundef %1, i32 noundef %2, ptr noundef %3, ptr noundef %4, i32 noundef %5) #0 {
  %7 = alloca ptr, align 8
  %8 = alloca ptr, align 8
  %9 = alloca i32, align 4
  %10 = alloca ptr, align 8
  %11 = alloca ptr, align 8
  %12 = alloca i32, align 4
  %13 = alloca i32, align 4
  %14 = alloca [5 x i8], align 1
  %15 = alloca ptr, align 8
  %16 = alloca ptr, align 8
  %17 = alloca i32, align 4
  store ptr %0, ptr %7, align 8, !tbaa !19
  store ptr %1, ptr %8, align 8, !tbaa !12
  store i32 %2, ptr %9, align 4, !tbaa !10
  store ptr %3, ptr %10, align 8, !tbaa !4
  store ptr %4, ptr %11, align 8, !tbaa !92
  store i32 %5, ptr %12, align 4, !tbaa !10
  call void @llvm.lifetime.start.p0(i64 4, ptr %13) #10
  call void @llvm.lifetime.start.p0(i64 5, ptr %14) #10
  call void @llvm.lifetime.start.p0(i64 8, ptr %15) #10
  store ptr null, ptr %15, align 8, !tbaa !23
  call void @llvm.lifetime.start.p0(i64 8, ptr %16) #10
  store ptr null, ptr %16, align 8, !tbaa !74
  %18 = call noalias ptr @av_mallocz(i64 noundef 56)
  store ptr %18, ptr %15, align 8, !tbaa !23
  %19 = load ptr, ptr %15, align 8, !tbaa !23
  %20 = icmp ne ptr %19, null
  br i1 %20, label %22, label %21

21:                                               ; preds = %6
  store i32 1, ptr %17, align 4
  br label %105

22:                                               ; preds = %6
  %23 = load ptr, ptr %15, align 8, !tbaa !23
  %24 = getelementptr inbounds nuw %struct.ID3v2ExtraMeta, ptr %23, i32 0, i32 2
  store ptr %24, ptr %16, align 8, !tbaa !74
  %25 = load ptr, ptr %7, align 8, !tbaa !19
  %26 = load ptr, ptr %8, align 8, !tbaa !12
  %27 = load ptr, ptr %16, align 8, !tbaa !74
  %28 = getelementptr inbounds nuw %struct.ID3v2ExtraMetaCHAP, ptr %27, i32 0, i32 0
  %29 = call i32 @decode_str(ptr noundef %25, ptr noundef %26, i32 noundef 0, ptr noundef %28, ptr noundef %9)
  %30 = icmp slt i32 %29, 0
  br i1 %30, label %31, label %32

31:                                               ; preds = %22
  br label %103

32:                                               ; preds = %22
  %33 = load i32, ptr %9, align 4, !tbaa !10
  %34 = icmp slt i32 %33, 16
  br i1 %34, label %35, label %36

35:                                               ; preds = %32
  br label %103

36:                                               ; preds = %32
  %37 = load ptr, ptr %8, align 8, !tbaa !12
  %38 = call i32 @avio_rb32(ptr noundef %37)
  %39 = load ptr, ptr %16, align 8, !tbaa !74
  %40 = getelementptr inbounds nuw %struct.ID3v2ExtraMetaCHAP, ptr %39, i32 0, i32 1
  store i32 %38, ptr %40, align 8, !tbaa !76
  %41 = load ptr, ptr %8, align 8, !tbaa !12
  %42 = call i32 @avio_rb32(ptr noundef %41)
  %43 = load ptr, ptr %16, align 8, !tbaa !74
  %44 = getelementptr inbounds nuw %struct.ID3v2ExtraMetaCHAP, ptr %43, i32 0, i32 2
  store i32 %42, ptr %44, align 4, !tbaa !78
  %45 = load ptr, ptr %8, align 8, !tbaa !12
  %46 = call i64 @avio_skip(ptr noundef %45, i64 noundef 8)
  %47 = load i32, ptr %9, align 4, !tbaa !10
  %48 = sub nsw i32 %47, 16
  store i32 %48, ptr %9, align 4, !tbaa !10
  br label %49

49:                                               ; preds = %90, %36
  %50 = load i32, ptr %9, align 4, !tbaa !10
  %51 = icmp sgt i32 %50, 10
  br i1 %51, label %52, label %94

52:                                               ; preds = %49
  %53 = load ptr, ptr %8, align 8, !tbaa !12
  %54 = getelementptr inbounds [5 x i8], ptr %14, i64 0, i64 0
  %55 = call i32 @avio_read(ptr noundef %53, ptr noundef %54, i32 noundef 4)
  %56 = icmp slt i32 %55, 4
  br i1 %56, label %57, label %58

57:                                               ; preds = %52
  br label %103

58:                                               ; preds = %52
  %59 = getelementptr inbounds [5 x i8], ptr %14, i64 0, i64 4
  store i8 0, ptr %59, align 1, !tbaa !9
  %60 = load ptr, ptr %8, align 8, !tbaa !12
  %61 = call i32 @avio_rb32(ptr noundef %60)
  store i32 %61, ptr %13, align 4, !tbaa !10
  %62 = load ptr, ptr %8, align 8, !tbaa !12
  %63 = call i64 @avio_skip(ptr noundef %62, i64 noundef 2)
  %64 = load i32, ptr %9, align 4, !tbaa !10
  %65 = sub nsw i32 %64, 10
  store i32 %65, ptr %9, align 4, !tbaa !10
  %66 = load i32, ptr %13, align 4, !tbaa !10
  %67 = icmp slt i32 %66, 0
  br i1 %67, label %72, label %68

68:                                               ; preds = %58
  %69 = load i32, ptr %13, align 4, !tbaa !10
  %70 = load i32, ptr %9, align 4, !tbaa !10
  %71 = icmp sgt i32 %69, %70
  br i1 %71, label %72, label %73

72:                                               ; preds = %68, %58
  br label %103

73:                                               ; preds = %68
  %74 = getelementptr inbounds [5 x i8], ptr %14, i64 0, i64 0
  %75 = load i8, ptr %74, align 1, !tbaa !9
  %76 = sext i8 %75 to i32
  %77 = icmp eq i32 %76, 84
  br i1 %77, label %78, label %85

78:                                               ; preds = %73
  %79 = load ptr, ptr %7, align 8, !tbaa !19
  %80 = load ptr, ptr %8, align 8, !tbaa !12
  %81 = load i32, ptr %13, align 4, !tbaa !10
  %82 = load ptr, ptr %16, align 8, !tbaa !74
  %83 = getelementptr inbounds nuw %struct.ID3v2ExtraMetaCHAP, ptr %82, i32 0, i32 3
  %84 = getelementptr inbounds [5 x i8], ptr %14, i64 0, i64 0
  call void @read_ttag(ptr noundef %79, ptr noundef %80, i32 noundef %81, ptr noundef %83, ptr noundef %84)
  br label %90

85:                                               ; preds = %73
  %86 = load ptr, ptr %8, align 8, !tbaa !12
  %87 = load i32, ptr %13, align 4, !tbaa !10
  %88 = sext i32 %87 to i64
  %89 = call i64 @avio_skip(ptr noundef %86, i64 noundef %88)
  br label %90

90:                                               ; preds = %85, %78
  %91 = load i32, ptr %13, align 4, !tbaa !10
  %92 = load i32, ptr %9, align 4, !tbaa !10
  %93 = sub nsw i32 %92, %91
  store i32 %93, ptr %9, align 4, !tbaa !10
  br label %49, !llvm.loop !129

94:                                               ; preds = %49
  %95 = load ptr, ptr %16, align 8, !tbaa !74
  %96 = getelementptr inbounds nuw %struct.ID3v2ExtraMetaCHAP, ptr %95, i32 0, i32 3
  call void @ff_metadata_conv(ptr noundef %96, ptr noundef null, ptr noundef @ff_id3v2_34_metadata_conv)
  %97 = load ptr, ptr %16, align 8, !tbaa !74
  %98 = getelementptr inbounds nuw %struct.ID3v2ExtraMetaCHAP, ptr %97, i32 0, i32 3
  call void @ff_metadata_conv(ptr noundef %98, ptr noundef null, ptr noundef @ff_id3v2_4_metadata_conv)
  %99 = load ptr, ptr %15, align 8, !tbaa !23
  %100 = getelementptr inbounds nuw %struct.ID3v2ExtraMeta, ptr %99, i32 0, i32 0
  store ptr @.str.68, ptr %100, align 8, !tbaa !41
  %101 = load ptr, ptr %15, align 8, !tbaa !23
  %102 = load ptr, ptr %11, align 8, !tbaa !92
  call void @list_append(ptr noundef %101, ptr noundef %102)
  store i32 1, ptr %17, align 4
  br label %105

103:                                              ; preds = %72, %57, %35, %31
  %104 = load ptr, ptr %16, align 8, !tbaa !74
  call void @free_chapter(ptr noundef %104)
  call void @av_freep(ptr noundef %15)
  store i32 0, ptr %17, align 4
  br label %105

105:                                              ; preds = %103, %94, %21
  call void @llvm.lifetime.end.p0(i64 8, ptr %16) #10
  call void @llvm.lifetime.end.p0(i64 8, ptr %15) #10
  call void @llvm.lifetime.end.p0(i64 5, ptr %14) #10
  call void @llvm.lifetime.end.p0(i64 4, ptr %13) #10
  %106 = load i32, ptr %17, align 4
  switch i32 %106, label %108 [
    i32 0, label %107
    i32 1, label %107
  ]

107:                                              ; preds = %105, %105
  ret void

108:                                              ; preds = %105
  unreachable
}