; Function Attrs: nounwind uwtable
define internal void @read_chapter(ptr noundef %0, ptr noundef %1, i32 noundef %2, ptr readnone captures(none) %3, ptr noundef captures(none) %4, i32 %5) #2 {
  %7 = alloca i32, align 4
  %8 = alloca [5 x i8], align 1
  %9 = alloca ptr, align 8
  store i32 %2, ptr %7, align 4, !tbaa !12
  call void @llvm.lifetime.start.p0(i64 5, ptr nonnull %8) #9
  call void @llvm.lifetime.start.p0(i64 8, ptr nonnull %9) #9
  %10 = tail call noalias ptr @av_mallocz(i64 noundef 56) #9
  store ptr %10, ptr %9, align 8, !tbaa !7
  %.not = icmp eq ptr %10, null
  br i1 %.not, label %53, label %11

11:                                               ; preds = %6
  %12 = getelementptr inbounds nuw i8, ptr %10, i64 16
  %13 = call fastcc i32 @decode_str(ptr noundef %0, ptr noundef %1, i32 noundef 0, ptr noundef %12, ptr noundef %7)
  %14 = icmp slt i32 %13, 0
  %15 = load i32, ptr %7, align 4
  %16 = icmp slt i32 %15, 16
  %or.cond = select i1 %14, i1 true, i1 %16
  br i1 %or.cond, label %.loopexit, label %17

17:                                               ; preds = %11
  %18 = tail call i32 @avio_rb32(ptr noundef %1) #9
  %19 = getelementptr inbounds nuw i8, ptr %10, i64 24
  store i32 %18, ptr %19, align 8, !tbaa !72
  %20 = tail call i32 @avio_rb32(ptr noundef %1) #9
  %21 = getelementptr inbounds nuw i8, ptr %10, i64 28
  store i32 %20, ptr %21, align 4, !tbaa !74
  %22 = tail call i64 @avio_skip(ptr noundef %1, i64 noundef 8) #9
  %23 = icmp samesign ugt i32 %15, 26
  br i1 %23, label %.lr.ph, label %._crit_edge

.lr.ph:                                           ; preds = %17
  %24 = add nsw i32 %15, -16
  %25 = getelementptr inbounds nuw i8, ptr %8, i64 4
  %26 = getelementptr inbounds nuw i8, ptr %10, i64 32
  br label %27

27:                                               ; preds = %.lr.ph, %43
  %storemerge27 = phi i32 [ %24, %.lr.ph ], [ %44, %43 ]
  %28 = call i32 @avio_read(ptr noundef %1, ptr noundef nonnull %8, i32 noundef 4) #9
  %29 = icmp slt i32 %28, 4
  br i1 %29, label %.loopexit, label %30

30:                                               ; preds = %27
  store i8 0, ptr %25, align 1, !tbaa !4
  %31 = call i32 @avio_rb32(ptr noundef %1) #9
  %32 = call i64 @avio_skip(ptr noundef %1, i64 noundef 2) #9
  %33 = add nsw i32 %storemerge27, -10
  %34 = icmp slt i32 %31, 0
  %35 = icmp sgt i32 %31, %33
  %or.cond25 = select i1 %34, i1 true, i1 %35
  br i1 %or.cond25, label %.loopexit, label %36

36:                                               ; preds = %30
  %37 = load i8, ptr %8, align 1, !tbaa !4
  %38 = icmp eq i8 %37, 84
  br i1 %38, label %39, label %40

39:                                               ; preds = %36
  call fastcc void @read_ttag(ptr noundef %0, ptr noundef %1, i32 noundef %31, ptr noundef nonnull %26, ptr noundef %8)
  br label %43

40:                                               ; preds = %36
  %41 = zext nneg i32 %31 to i64
  %42 = call i64 @avio_skip(ptr noundef %1, i64 noundef %41) #9
  br label %43

43:                                               ; preds = %40, %39
  %44 = sub nsw i32 %33, %31
  %45 = icmp sgt i32 %44, 10
  br i1 %45, label %27, label %._crit_edge, !llvm.loop !102

._crit_edge:                                      ; preds = %43, %17
  %46 = getelementptr inbounds nuw i8, ptr %10, i64 32
  call void @ff_metadata_conv(ptr noundef nonnull %46, ptr noundef null, ptr noundef nonnull @ff_id3v2_34_metadata_conv) #9
  call void @ff_metadata_conv(ptr noundef nonnull %46, ptr noundef null, ptr noundef nonnull @ff_id3v2_4_metadata_conv) #9
  store ptr @.str.68, ptr %10, align 8, !tbaa !47
  %47 = getelementptr inbounds nuw i8, ptr %4, i64 8
  %48 = load ptr, ptr %47, align 8, !tbaa !94
  %.not.i = icmp eq ptr %48, null
  br i1 %.not.i, label %51, label %49

49:                                               ; preds = %._crit_edge
  %50 = getelementptr inbounds nuw i8, ptr %48, i64 8
  store ptr %10, ptr %50, align 8, !tbaa !50
  br label %list_append.exit

51:                                               ; preds = %._crit_edge
  store ptr %10, ptr %4, align 8, !tbaa !32
  br label %list_append.exit

list_append.exit:                                 ; preds = %49, %51
  store ptr %10, ptr %47, align 8, !tbaa !94
  br label %53

.loopexit:                                        ; preds = %30, %27, %11
  call void @av_freep(ptr noundef nonnull %12) #9
  %52 = getelementptr inbounds nuw i8, ptr %10, i64 32
  call void @av_dict_free(ptr noundef nonnull %52) #9
  call void @av_freep(ptr noundef nonnull %9) #9
  br label %53

53:                                               ; preds = %6, %.loopexit, %list_append.exit
  call void @llvm.lifetime.end.p0(i64 8, ptr nonnull %9) #9
  call void @llvm.lifetime.end.p0(i64 5, ptr nonnull %8) #9
  ret void
}